; Function Attrs: mustprogress nofree norecurse nosync nounwind willreturn memory(readwrite, inaccessiblemem: none) uwtable
define dso_local void @_ZN5ImGui20NavMoveRequestCancelEv() local_unnamed_addr #34 {
_ZN5ImGuiL23NavUpdateAnyRequestFlagEv.exit:
  %0 = load ptr, ptr @GImGui, align 8, !tbaa !211
  %1 = getelementptr inbounds nuw i8, ptr %0, i64 7945
  store i8 0, ptr %1, align 1, !tbaa !389
  %2 = getelementptr inbounds nuw i8, ptr %0, i64 7944
  store i8 0, ptr %2, align 8, !tbaa !610
  %3 = getelementptr inbounds nuw i8, ptr %0, i64 7885
  %4 = load i8, ptr %3, align 1, !tbaa !806, !range !92, !noundef !93
  %5 = getelementptr inbounds nuw i8, ptr %0, i64 7884
  store i8 %4, ptr %5, align 4, !tbaa !807
  ret void
}